target datalayout = "e-m:e-p270:32:32-p271:32:32-p272:64:64-i64:64-i128:128-f80:128-n8:16:32:64-S128"
target triple = "x86_64-pc-linux-gnu"

%struct.Elf64_Ehdr = type { [16 x i8], i16, i16, i32, i64, i64, i64, i32, i16, i16, i16, i16, i16, i16 }
%struct.Elf64_Shdr = type { i32, i32, i64, i64, i64, i64, i32, i32, i64, i64 }
%struct.Elf64_Phdr = type { i32, i32, i64, i64, i64, i64, i64, i64 }

; Function Attrs: nounwind uwtable
define internal void @elf64_bswap_shdr(ptr noundef %0) #0 {
  %2 = alloca ptr, align 8
  store ptr %0, ptr %2, align 8, !tbaa !24
  %3 = load ptr, ptr %2, align 8, !tbaa !24
  %4 = getelementptr inbounds nuw %struct.Elf64_Shdr, ptr %3, i32 0, i32 0
  %5 = load i32, ptr %4, align 8, !tbaa !121
  %6 = call i32 @llvm.bswap.i32(i32 %5)
  %7 = load ptr, ptr %2, align 8, !tbaa !24
  %8 = getelementptr inbounds nuw %struct.Elf64_Shdr, ptr %7, i32 0, i32 0
  store i32 %6, ptr %8, align 8, !tbaa !121
  %9 = load ptr, ptr %2, align 8, !tbaa !24
  %10 = getelementptr inbounds nuw %struct.Elf64_Shdr, ptr %9, i32 0, i32 1
  %11 = load i32, ptr %10, align 4, !tbaa !57
  %12 = call i32 @llvm.bswap.i32(i32 %11)
  %13 = load ptr, ptr %2, align 8, !tbaa !24
  %14 = getelementptr inbounds nuw %struct.Elf64_Shdr, ptr %13, i32 0, i32 1
  store i32 %12, ptr %14, align 4, !tbaa !57
  %15 = load ptr, ptr %2, align 8, !tbaa !24
  %16 = getelementptr inbounds nuw %struct.Elf64_Shdr, ptr %15, i32 0, i32 2
  %17 = load i64, ptr %16, align 8, !tbaa !122
  %18 = call i64 @llvm.bswap.i64(i64 %17)
  %19 = load ptr, ptr %2, align 8, !tbaa !24
  %20 = getelementptr inbounds nuw %struct.Elf64_Shdr, ptr %19, i32 0, i32 2
  store i64 %18, ptr %20, align 8, !tbaa !122
  %21 = load ptr, ptr %2, align 8, !tbaa !24
  %22 = getelementptr inbounds nuw %struct.Elf64_Shdr, ptr %21, i32 0, i32 3
  %23 = load i64, ptr %22, align 8, !tbaa !123
  %24 = call i64 @llvm.bswap.i64(i64 %23)
  %25 = load ptr, ptr %2, align 8, !tbaa !24
  %26 = getelementptr inbounds nuw %struct.Elf64_Shdr, ptr %25, i32 0, i32 3
  store i64 %24, ptr %26, align 8, !tbaa !123
  %27 = load ptr, ptr %2, align 8, !tbaa !24
  %28 = getelementptr inbounds nuw %struct.Elf64_Shdr, ptr %27, i32 0, i32 4
  %29 = load i64, ptr %28, align 8, !tbaa !75
  %30 = call i64 @llvm.bswap.i64(i64 %29)
  %31 = load ptr, ptr %2, align 8, !tbaa !24
  %32 = getelementptr inbounds nuw %struct.Elf64_Shdr, ptr %31, i32 0, i32 4
  store i64 %30, ptr %32, align 8, !tbaa !75
  %33 = load ptr, ptr %2, align 8, !tbaa !24
  %34 = getelementptr inbounds nuw %struct.Elf64_Shdr, ptr %33, i32 0, i32 5
  %35 = load i64, ptr %34, align 8, !tbaa !76
  %36 = call i64 @llvm.bswap.i64(i64 %35)
  %37 = load ptr, ptr %2, align 8, !tbaa !24
  %38 = getelementptr inbounds nuw %struct.Elf64_Shdr, ptr %37, i32 0, i32 5
  store i64 %36, ptr %38, align 8, !tbaa !76
  %39 = load ptr, ptr %2, align 8, !tbaa !24
  %40 = getelementptr inbounds nuw %struct.Elf64_Shdr, ptr %39, i32 0, i32 6
  %41 = load i32, ptr %40, align 8, !tbaa !114
  %42 = call i32 @llvm.bswap.i32(i32 %41)
  %43 = load ptr, ptr %2, align 8, !tbaa !24
  %44 = getelementptr inbounds nuw %struct.Elf64_Shdr, ptr %43, i32 0, i32 6
  store i32 %42, ptr %44, align 8, !tbaa !114
  %45 = load ptr, ptr %2, align 8, !tbaa !24
  %46 = getelementptr inbounds nuw %struct.Elf64_Shdr, ptr %45, i32 0, i32 7
  %47 = load i32, ptr %46, align 4, !tbaa !124
  %48 = call i32 @llvm.bswap.i32(i32 %47)
  %49 = load ptr, ptr %2, align 8, !tbaa !24
  %50 = getelementptr inbounds nuw %struct.Elf64_Shdr, ptr %49, i32 0, i32 7
  store i32 %48, ptr %50, align 4, !tbaa !124
  %51 = load ptr, ptr %2, align 8, !tbaa !24
  %52 = getelementptr inbounds nuw %struct.Elf64_Shdr, ptr %51, i32 0, i32 8
  %53 = load i64, ptr %52, align 8, !tbaa !125
  %54 = call i64 @llvm.bswap.i64(i64 %53)
  %55 = load ptr, ptr %2, align 8, !tbaa !24
  %56 = getelementptr inbounds nuw %struct.Elf64_Shdr, ptr %55, i32 0, i32 8
  store i64 %54, ptr %56, align 8, !tbaa !125
  %57 = load ptr, ptr %2, align 8, !tbaa !24
  %58 = getelementptr inbounds nuw %struct.Elf64_Shdr, ptr %57, i32 0, i32 9
  %59 = load i64, ptr %58, align 8, !tbaa !126
  %60 = call i64 @llvm.bswap.i64(i64 %59)
  %61 = load ptr, ptr %2, align 8, !tbaa !24
  %62 = getelementptr inbounds nuw %struct.Elf64_Shdr, ptr %61, i32 0, i32 9
  store i64 %60, ptr %62, align 8, !tbaa !126
  ret void
}

; Function Attrs: nounwind uwtable
define internal void @elf64_bswap_phdr(ptr noundef %0) #0 {
  %2 = alloca ptr, align 8
  store ptr %0, ptr %2, align 8, !tbaa !24
  %3 = load ptr, ptr %2, align 8, !tbaa !24
  %4 = getelementptr inbounds nuw %struct.Elf64_Phdr, ptr %3, i32 0, i32 0
  %5 = load i32, ptr %4, align 8, !tbaa !60
  %6 = call i32 @llvm.bswap.i32(i32 %5)
  %7 = load ptr, ptr %2, align 8, !tbaa !24
  %8 = getelementptr inbounds nuw %struct.Elf64_Phdr, ptr %7, i32 0, i32 0
  store i32 %6, ptr %8, align 8, !tbaa !60
  %9 = load ptr, ptr %2, align 8, !tbaa !24
  %10 = getelementptr inbounds nuw %struct.Elf64_Phdr, ptr %9, i32 0, i32 1
  %11 = load i32, ptr %10, align 4, !tbaa !66
  %12 = call i32 @llvm.bswap.i32(i32 %11)
  %13 = load ptr, ptr %2, align 8, !tbaa !24
  %14 = getelementptr inbounds nuw %struct.Elf64_Phdr, ptr %13, i32 0, i32 1
  store i32 %12, ptr %14, align 4, !tbaa !66
  %15 = load ptr, ptr %2, align 8, !tbaa !24
  %16 = getelementptr inbounds nuw %struct.Elf64_Phdr, ptr %15, i32 0, i32 2
  %17 = load i64, ptr %16, align 8, !tbaa !62
  %18 = call i64 @llvm.bswap.i64(i64 %17)
  %19 = load ptr, ptr %2, align 8, !tbaa !24
  %20 = getelementptr inbounds nuw %struct.Elf64_Phdr, ptr %19, i32 0, i32 2
  store i64 %18, ptr %20, align 8, !tbaa !62
  %21 = load ptr, ptr %2, align 8, !tbaa !24
  %22 = getelementptr inbounds nuw %struct.Elf64_Phdr, ptr %21, i32 0, i32 3
  %23 = load i64, ptr %22, align 8, !tbaa !63
  %24 = call i64 @llvm.bswap.i64(i64 %23)
  %25 = load ptr, ptr %2, align 8, !tbaa !24
  %26 = getelementptr inbounds nuw %struct.Elf64_Phdr, ptr %25, i32 0, i32 3
  store i64 %24, ptr %26, align 8, !tbaa !63
  %27 = load ptr, ptr %2, align 8, !tbaa !24
  %28 = getelementptr inbounds nuw %struct.Elf64_Phdr, ptr %27, i32 0, i32 4
  %29 = load i64, ptr %28, align 8, !tbaa !119
  %30 = call i64 @llvm.bswap.i64(i64 %29)
  %31 = load ptr, ptr %2, align 8, !tbaa !24
  %32 = getelementptr inbounds nuw %struct.Elf64_Phdr, ptr %31, i32 0, i32 4
  store i64 %30, ptr %32, align 8, !tbaa !119
  %33 = load ptr, ptr %2, align 8, !tbaa !24
  %34 = getelementptr inbounds nuw %struct.Elf64_Phdr, ptr %33, i32 0, i32 5
  %35 = load i64, ptr %34, align 8, !tbaa !64
  %36 = call i64 @llvm.bswap.i64(i64 %35)
  %37 = load ptr, ptr %2, align 8, !tbaa !24
  %38 = getelementptr inbounds nuw %struct.Elf64_Phdr, ptr %37, i32 0, i32 5
  store i64 %36, ptr %38, align 8, !tbaa !64
  %39 = load ptr, ptr %2, align 8, !tbaa !24
  %40 = getelementptr inbounds nuw %struct.Elf64_Phdr, ptr %39, i32 0, i32 6
  %41 = load i64, ptr %40, align 8, !tbaa !65
  %42 = call i64 @llvm.bswap.i64(i64 %41)
  %43 = load ptr, ptr %2, align 8, !tbaa !24
  %44 = getelementptr inbounds nuw %struct.Elf64_Phdr, ptr %43, i32 0, i32 6
  store i64 %42, ptr %44, align 8, !tbaa !65
  %45 = load ptr, ptr %2, align 8, !tbaa !24
  %46 = getelementptr inbounds nuw %struct.Elf64_Phdr, ptr %45, i32 0, i32 7
  %47 = load i64, ptr %46, align 8, !tbaa !120
  %48 = call i64 @llvm.bswap.i64(i64 %47)
  %49 = load ptr, ptr %2, align 8, !tbaa !24
  %50 = getelementptr inbounds nuw %struct.Elf64_Phdr, ptr %49, i32 0, i32 7
  store i64 %48, ptr %50, align 8, !tbaa !120
  ret void
}

; Function Attrs: nounwind uwtable
define internal void @elf64_bswap_ps_hdrs(ptr noundef %0) #0 {
  %2 = alloca ptr, align 8
  %3 = alloca ptr, align 8
  %4 = alloca ptr, align 8
  %5 = alloca i16, align 2
  store ptr %0, ptr %2, align 8, !tbaa !24
  call void @llvm.lifetime.start.p0(i64 8, ptr %3) #10
  %6 = load ptr, ptr %2, align 8, !tbaa !24
  %7 = load ptr, ptr %2, align 8, !tbaa !24
  %8 = getelementptr inbounds nuw %struct.Elf64_Ehdr, ptr %7, i32 0, i32 5
  %9 = load i64, ptr %8, align 8, !tbaa !54
  %10 = getelementptr inbounds nuw i8, ptr %6, i64 %9
  store ptr %10, ptr %3, align 8, !tbaa !24
  call void @llvm.lifetime.start.p0(i64 8, ptr %4) #10
  %11 = load ptr, ptr %2, align 8, !tbaa !24
  %12 = load ptr, ptr %2, align 8, !tbaa !24
  %13 = getelementptr inbounds nuw %struct.Elf64_Ehdr, ptr %12, i32 0, i32 6
  %14 = load i64, ptr %13, align 8, !tbaa !56
  %15 = getelementptr inbounds nuw i8, ptr %11, i64 %14
  store ptr %15, ptr %4, align 8, !tbaa !24
  call void @llvm.lifetime.start.p0(i64 2, ptr %5) #10
  store i16 0, ptr %5, align 2, !tbaa !86
  br label %16

16:                                               ; preds = %29, %1
  %17 = load i16, ptr %5, align 2, !tbaa !86
  %18 = zext i16 %17 to i32
  %19 = load ptr, ptr %2, align 8, !tbaa !24
  %20 = getelementptr inbounds nuw %struct.Elf64_Ehdr, ptr %19, i32 0, i32 10
  %21 = load i16, ptr %20, align 8, !tbaa !52
  %22 = zext i16 %21 to i32
  %23 = icmp slt i32 %18, %22
  br i1 %23, label %24, label %32

24:                                               ; preds = %16
  %25 = load ptr, ptr %3, align 8, !tbaa !24
  %26 = load i16, ptr %5, align 2, !tbaa !86
  %27 = zext i16 %26 to i64
  %28 = getelementptr inbounds nuw %struct.Elf64_Phdr, ptr %25, i64 %27
  call void @elf64_bswap_phdr(ptr noundef %28)
  br label %29

29:                                               ; preds = %24
  %30 = load i16, ptr %5, align 2, !tbaa !86
  %31 = add i16 %30, 1
  store i16 %31, ptr %5, align 2, !tbaa !86
  br label %16, !llvm.loop !112

32:                                               ; preds = %16
  store i16 0, ptr %5, align 2, !tbaa !86
  br label %33

33:                                               ; preds = %46, %32
  %34 = load i16, ptr %5, align 2, !tbaa !86
  %35 = zext i16 %34 to i32
  %36 = load ptr, ptr %2, align 8, !tbaa !24
  %37 = getelementptr inbounds nuw %struct.Elf64_Ehdr, ptr %36, i32 0, i32 12
  %38 = load i16, ptr %37, align 4, !tbaa !55
  %39 = zext i16 %38 to i32
  %40 = icmp slt i32 %35, %39
  br i1 %40, label %41, label %49

41:                                               ; preds = %33
  %42 = load ptr, ptr %4, align 8, !tbaa !24
  %43 = load i16, ptr %5, align 2, !tbaa !86
  %44 = zext i16 %43 to i64
  %45 = getelementptr inbounds nuw %struct.Elf64_Shdr, ptr %42, i64 %44
  call void @elf64_bswap_shdr(ptr noundef %45)
  br label %46

46:                                               ; preds = %41
  %47 = load i16, ptr %5, align 2, !tbaa !86
  %48 = add i16 %47, 1
  store i16 %48, ptr %5, align 2, !tbaa !86
  br label %33, !llvm.loop !113

49:                                               ; preds = %33
  call void @llvm.lifetime.end.p0(i64 2, ptr %5) #10
  call void @llvm.lifetime.end.p0(i64 8, ptr %4) #10
  call void @llvm.lifetime.end.p0(i64 8, ptr %3) #10
  ret void
}