; Function Attrs: nofree norecurse nosync nounwind memory(argmem: readwrite) uwtable
define internal fastcc void @elf64_bswap_ps_hdrs(ptr noundef nonnull captures(none) %0) unnamed_addr #5 {
  %2 = getelementptr inbounds nuw i8, ptr %0, i64 32
  %3 = load i64, ptr %2, align 8, !tbaa !54
  %4 = getelementptr inbounds nuw i8, ptr %0, i64 %3
  %5 = getelementptr inbounds nuw i8, ptr %0, i64 40
  %6 = load i64, ptr %5, align 8, !tbaa !55
  %7 = getelementptr inbounds nuw i8, ptr %0, i64 %6
  %8 = getelementptr inbounds nuw i8, ptr %0, i64 56
  %9 = load i16, ptr %8, align 8, !tbaa !59
  %.not = icmp eq i16 %9, 0
  br i1 %.not, label %.preheader, label %.lr.ph.preheader

.lr.ph.preheader:                                 ; preds = %1
  %wide.trip.count = zext i16 %9 to i64
  br label %.lr.ph

.preheader:                                       ; preds = %.lr.ph, %1
  %10 = getelementptr inbounds nuw i8, ptr %0, i64 60
  %11 = load i16, ptr %10, align 4, !tbaa !61
  %.not16 = icmp eq i16 %11, 0
  br i1 %.not16, label %._crit_edge, label %.lr.ph15.preheader

.lr.ph15.preheader:                               ; preds = %.preheader
  %wide.trip.count21 = zext i16 %11 to i64
  br label %.lr.ph15

.lr.ph:                                           ; preds = %.lr.ph.preheader, %.lr.ph
  %indvars.iv = phi i64 [ 0, %.lr.ph.preheader ], [ %indvars.iv.next, %.lr.ph ]
  %12 = getelementptr inbounds nuw %struct.Elf64_Phdr, ptr %4, i64 %indvars.iv
  %13 = load i32, ptr %12, align 8, !tbaa !66
  %14 = tail call i32 @llvm.bswap.i32(i32 %13)
  store i32 %14, ptr %12, align 8, !tbaa !66
  %15 = getelementptr inbounds nuw i8, ptr %12, i64 4
  %16 = load i32, ptr %15, align 4, !tbaa !72
  %17 = tail call i32 @llvm.bswap.i32(i32 %16)
  store i32 %17, ptr %15, align 4, !tbaa !72
  %18 = getelementptr inbounds nuw i8, ptr %12, i64 8
  %19 = load i64, ptr %18, align 8, !tbaa !68
  %20 = tail call i64 @llvm.bswap.i64(i64 %19)
  store i64 %20, ptr %18, align 8, !tbaa !68
  %21 = getelementptr inbounds nuw i8, ptr %12, i64 16
  %22 = load i64, ptr %21, align 8, !tbaa !69
  %23 = tail call i64 @llvm.bswap.i64(i64 %22)
  store i64 %23, ptr %21, align 8, !tbaa !69
  %24 = getelementptr inbounds nuw i8, ptr %12, i64 24
  %25 = load i64, ptr %24, align 8, !tbaa !95
  %26 = tail call i64 @llvm.bswap.i64(i64 %25)
  store i64 %26, ptr %24, align 8, !tbaa !95
  %27 = getelementptr inbounds nuw i8, ptr %12, i64 32
  %28 = load i64, ptr %27, align 8, !tbaa !70
  %29 = tail call i64 @llvm.bswap.i64(i64 %28)
  store i64 %29, ptr %27, align 8, !tbaa !70
  %30 = getelementptr inbounds nuw i8, ptr %12, i64 40
  %31 = load i64, ptr %30, align 8, !tbaa !71
  %32 = tail call i64 @llvm.bswap.i64(i64 %31)
  store i64 %32, ptr %30, align 8, !tbaa !71
  %33 = getelementptr inbounds nuw i8, ptr %12, i64 48
  %34 = load i64, ptr %33, align 8, !tbaa !96
  %35 = tail call i64 @llvm.bswap.i64(i64 %34)
  store i64 %35, ptr %33, align 8, !tbaa !96
  %indvars.iv.next = add nuw nsw i64 %indvars.iv, 1
  %exitcond.not = icmp eq i64 %indvars.iv.next, %wide.trip.count
  br i1 %exitcond.not, label %.preheader, label %.lr.ph, !llvm.loop !97

.lr.ph15:                                         ; preds = %.lr.ph15.preheader, %.lr.ph15
  %indvars.iv18 = phi i64 [ 0, %.lr.ph15.preheader ], [ %indvars.iv.next19, %.lr.ph15 ]
  %36 = getelementptr inbounds nuw %struct.Elf64_Shdr, ptr %7, i64 %indvars.iv18
  %37 = load i32, ptr %36, align 8, !tbaa !98
  %38 = tail call i32 @llvm.bswap.i32(i32 %37)
  store i32 %38, ptr %36, align 8, !tbaa !98
  %39 = getelementptr inbounds nuw i8, ptr %36, i64 4
  %40 = load i32, ptr %39, align 4, !tbaa !63
  %41 = tail call i32 @llvm.bswap.i32(i32 %40)
  store i32 %41, ptr %39, align 4, !tbaa !63
  %42 = getelementptr inbounds nuw i8, ptr %36, i64 8
  %43 = load i64, ptr %42, align 8, !tbaa !99
  %44 = tail call i64 @llvm.bswap.i64(i64 %43)
  store i64 %44, ptr %42, align 8, !tbaa !99
  %45 = getelementptr inbounds nuw i8, ptr %36, i64 16
  %46 = load i64, ptr %45, align 8, !tbaa !100
  %47 = tail call i64 @llvm.bswap.i64(i64 %46)
  store i64 %47, ptr %45, align 8, !tbaa !100
  %48 = getelementptr inbounds nuw i8, ptr %36, i64 24
  %49 = load i64, ptr %48, align 8, !tbaa !78
  %50 = tail call i64 @llvm.bswap.i64(i64 %49)
  store i64 %50, ptr %48, align 8, !tbaa !78
  %51 = getelementptr inbounds nuw i8, ptr %36, i64 32
  %52 = load i64, ptr %51, align 8, !tbaa !79
  %53 = tail call i64 @llvm.bswap.i64(i64 %52)
  store i64 %53, ptr %51, align 8, !tbaa !79
  %54 = getelementptr inbounds nuw i8, ptr %36, i64 40
  %55 = load i32, ptr %54, align 8, !tbaa !101
  %56 = tail call i32 @llvm.bswap.i32(i32 %55)
  store i32 %56, ptr %54, align 8, !tbaa !101
  %57 = getelementptr inbounds nuw i8, ptr %36, i64 44
  %58 = load i32, ptr %57, align 4, !tbaa !102
  %59 = tail call i32 @llvm.bswap.i32(i32 %58)
  store i32 %59, ptr %57, align 4, !tbaa !102
  %60 = getelementptr inbounds nuw i8, ptr %36, i64 48
  %61 = load i64, ptr %60, align 8, !tbaa !103
  %62 = tail call i64 @llvm.bswap.i64(i64 %61)
  store i64 %62, ptr %60, align 8, !tbaa !103
  %63 = getelementptr inbounds nuw i8, ptr %36, i64 56
  %64 = load i64, ptr %63, align 8, !tbaa !104
  %65 = tail call i64 @llvm.bswap.i64(i64 %64)
  store i64 %65, ptr %63, align 8, !tbaa !104
  %indvars.iv.next19 = add nuw nsw i64 %indvars.iv18, 1
  %exitcond22.not = icmp eq i64 %indvars.iv.next19, %wide.trip.count21
  br i1 %exitcond22.not, label %._crit_edge, label %.lr.ph15, !llvm.loop !105

._crit_edge:                                      ; preds = %.lr.ph15, %.preheader
  ret void
}